ARM GAS  C:\Users\wille\AppData\Local\Temp\ccFUieKB.s 			page 1


   1              		.syntax unified
   2              		.cpu cortex-m3
   3              		.fpu softvfp
   4              		.eabi_attribute 20, 1
   5              		.eabi_attribute 21, 1
   6              		.eabi_attribute 23, 3
   7              		.eabi_attribute 24, 1
   8              		.eabi_attribute 25, 1
   9              		.eabi_attribute 26, 1
  10              		.eabi_attribute 30, 1
  11              		.eabi_attribute 34, 1
  12              		.eabi_attribute 18, 4
  13              		.thumb
  14              		.syntax unified
  15              		.file	"main.c"
  16              		.text
  17              	.Ltext0:
  18              		.cfi_sections	.debug_frame
  19              		.section	.text.main,"ax",%progbits
  20              		.align	2
  21              		.global	main
  22              		.thumb
  23              		.thumb_func
  24              		.type	main, %function
  25              	main:
  26              	.LFB64:
  27              		.file 1 "main.c"
   1:main.c        **** /**
   2:main.c        **** * @mainpage ZumoBot Project
   3:main.c        **** * @brief    You can make your own ZumoBot with various sensors.
   4:main.c        **** * @details  <br><br>
   5:main.c        ****     <p>
   6:main.c        ****     <B>General</B><br>
   7:main.c        ****     You will use Pololu Zumo Shields for your robot project with CY8CKIT-059(PSoC 5LP) from Cypress
   8:main.c        ****     library has basic methods of various sensors and communications so that you can make what you w
   9:main.c        ****     <br><br>
  10:main.c        ****     </p>
  11:main.c        ****     
  12:main.c        ****     <p>
  13:main.c        ****     <B>Sensors</B><br>
  14:main.c        ****     &nbsp;Included: <br>
  15:main.c        ****         &nbsp;&nbsp;&nbsp;&nbsp;LSM303D: Accelerometer & Magnetometer<br>
  16:main.c        ****         &nbsp;&nbsp;&nbsp;&nbsp;L3GD20H: Gyroscope<br>
  17:main.c        ****         &nbsp;&nbsp;&nbsp;&nbsp;Reflectance sensor<br>
  18:main.c        ****         &nbsp;&nbsp;&nbsp;&nbsp;Motors
  19:main.c        ****     &nbsp;Wii nunchuck<br>
  20:main.c        ****     &nbsp;TSOP-2236: IR Receiver<br>
  21:main.c        ****     &nbsp;HC-SR04: Ultrasonic sensor<br>
  22:main.c        ****     &nbsp;APDS-9301: Ambient light sensor<br>
  23:main.c        ****     &nbsp;IR LED <br><br><br>
  24:main.c        ****     </p>
  25:main.c        ****     
  26:main.c        ****     <p>
  27:main.c        ****     <B>Communication</B><br>
  28:main.c        ****     I2C, UART, Serial<br>
  29:main.c        ****     </p>
  30:main.c        **** */
ARM GAS  C:\Users\wille\AppData\Local\Temp\ccFUieKB.s 			page 2


  31:main.c        **** 
  32:main.c        **** #include <project.h>
  33:main.c        **** #include <stdio.h>
  34:main.c        **** #include <time.h>
  35:main.c        **** #include <stdlib.h>
  36:main.c        **** #include "Motor.h"
  37:main.c        **** #include "Ultra.h"
  38:main.c        **** #include "Nunchuk.h"
  39:main.c        **** #include "Reflectance.h"
  40:main.c        **** #include "I2C_made.h"
  41:main.c        **** #include "Gyro.h"
  42:main.c        **** #include "Accel_magnet.h"
  43:main.c        **** #include "IR.h"
  44:main.c        **** #include "Ambient.h"
  45:main.c        **** #include "Beep.h"
  46:main.c        **** //#include "Reflectance.c"
  47:main.c        **** 
  48:main.c        **** 
  49:main.c        **** 
  50:main.c        **** int rread(void);
  51:main.c        **** 
  52:main.c        **** /**
  53:main.c        ****  * @file    main.c
  54:main.c        ****  * @brief   
  55:main.c        ****  * @details  ** You should enable global interrupt for operating properly. **<br>&nbsp;&nbsp;&nbsp;
  56:main.c        **** */
  57:main.c        **** 
  58:main.c        **** 
  59:main.c        **** //battery level//
  60:main.c        **** int main()
  61:main.c        **** {
  28              		.loc 1 61 0
  29              		.cfi_startproc
  30              		@ args = 0, pretend = 0, frame = 8
  31              		@ frame_needed = 0, uses_anonymous_args = 0
  32 0000 00B5     		push	{lr}
  33              		.cfi_def_cfa_offset 4
  34              		.cfi_offset 14, -4
  35 0002 85B0     		sub	sp, sp, #20
  36              		.cfi_def_cfa_offset 24
  62:main.c        ****     struct sensors_ dig;
  63:main.c        ****     
  64:main.c        **** //    srand(time(NULL));
  65:main.c        **** //    int r = rand();
  66:main.c        ****     
  67:main.c        ****     CyGlobalIntEnable; 
  37              		.loc 1 67 0
  38              		.syntax unified
  39              	@ 67 "main.c" 1
  40 0004 62B6     		CPSIE   i
  41              	@ 0 "" 2
  68:main.c        ****     UART_1_Start();
  42              		.loc 1 68 0
  43              		.thumb
  44              		.syntax unified
  45 0006 FFF7FEFF 		bl	UART_1_Start
  46              	.LVL0:
ARM GAS  C:\Users\wille\AppData\Local\Temp\ccFUieKB.s 			page 3


  69:main.c        ****     ADC_Battery_Start();        
  47              		.loc 1 69 0
  48 000a FFF7FEFF 		bl	ADC_Battery_Start
  49              	.LVL1:
  70:main.c        ****     int16 adcresult =0;
  71:main.c        ****     float volts = 0.0;
  72:main.c        **** 
  73:main.c        ****     printf("\nBoot\n");
  50              		.loc 1 73 0
  51 000e 1848     		ldr	r0, .L8
  52 0010 FFF7FEFF 		bl	puts
  53              	.LVL2:
  74:main.c        **** 
  75:main.c        ****     //BatteryLed_Write(1); // Switch led on 
  76:main.c        ****     BatteryLed_Write(0); // Switch led off 
  54              		.loc 1 76 0
  55 0014 0020     		movs	r0, #0
  56 0016 FFF7FEFF 		bl	BatteryLed_Write
  57              	.LVL3:
  77:main.c        ****     //uint8 button;
  78:main.c        ****     //button = SW1_Read(); // read SW1 on pSoC board
  79:main.c        ****     motor_start();
  58              		.loc 1 79 0
  59 001a FFF7FEFF 		bl	motor_start
  60              	.LVL4:
  80:main.c        ****     reflectance_digital(&dig);
  61              		.loc 1 80 0
  62 001e 02A8     		add	r0, sp, #8
  63 0020 FFF7FEFF 		bl	reflectance_digital
  64              	.LVL5:
  65              	.L2:
  81:main.c        ****     while(SW1_Read())
  66              		.loc 1 81 0 discriminator 1
  67 0024 FFF7FEFF 		bl	SW1_Read
  68              	.LVL6:
  69 0028 0028     		cmp	r0, #0
  70 002a FBD1     		bne	.L2
  82:main.c        ****     {
  83:main.c        ****     }
  84:main.c        ****     CyDelay (1000);
  71              		.loc 1 84 0
  72 002c 4FF47A70 		mov	r0, #1000
  73 0030 FFF7FEFF 		bl	CyDelay
  74              	.LVL7:
  75              	.L3:
  85:main.c        ****     for(;;)
  86:main.c        ****     {
  87:main.c        ****         
  88:main.c        ****         if(dig.l1 == 0 || dig.l3 == 0 || dig.r1 == 0 || dig.r3 == 0)
  76              		.loc 1 88 0
  77 0034 BDF80A30 		ldrh	r3, [sp, #10]
  78 0038 43B1     		cbz	r3, .L4
  79              		.loc 1 88 0 is_stmt 0 discriminator 1
  80 003a BDF80830 		ldrh	r3, [sp, #8]
  81 003e 2BB1     		cbz	r3, .L4
  82              		.loc 1 88 0 discriminator 2
  83 0040 BDF80C30 		ldrh	r3, [sp, #12]
ARM GAS  C:\Users\wille\AppData\Local\Temp\ccFUieKB.s 			page 4


  84 0044 13B1     		cbz	r3, .L4
  85              		.loc 1 88 0 discriminator 3
  86 0046 BDF80E30 		ldrh	r3, [sp, #14]
  87 004a 43B9     		cbnz	r3, .L5
  88              	.L4:
  89:main.c        ****         {
  90:main.c        ****             motor_sharp_turn(1,0,255,255,100);
  89              		.loc 1 90 0 is_stmt 1
  90 004c 6423     		movs	r3, #100
  91 004e 0093     		str	r3, [sp]
  92 0050 FF23     		movs	r3, #255
  93 0052 1A46     		mov	r2, r3
  94 0054 0021     		movs	r1, #0
  95 0056 0120     		movs	r0, #1
  96 0058 FFF7FEFF 		bl	motor_sharp_turn
  97              	.LVL8:
  98 005c EAE7     		b	.L3
  99              	.L5:
  91:main.c        ****         }
  92:main.c        ****         else{
  93:main.c        ****         motor_sharp_turn(0,0,255,150,1);
 100              		.loc 1 93 0
 101 005e 0123     		movs	r3, #1
 102 0060 0093     		str	r3, [sp]
 103 0062 9623     		movs	r3, #150
 104 0064 FF22     		movs	r2, #255
 105 0066 0021     		movs	r1, #0
 106 0068 0846     		mov	r0, r1
 107 006a FFF7FEFF 		bl	motor_sharp_turn
 108              	.LVL9:
 109 006e E1E7     		b	.L3
 110              	.L9:
 111              		.align	2
 112              	.L8:
 113 0070 00000000 		.word	.LC0
 114              		.cfi_endproc
 115              	.LFE64:
 116              		.size	main, .-main
 117              		.global	__aeabi_fmul
 118              		.global	__aeabi_f2d
 119              		.section	.text.checkBat,"ax",%progbits
 120              		.align	2
 121              		.global	checkBat
 122              		.thumb
 123              		.thumb_func
 124              		.type	checkBat, %function
 125              	checkBat:
 126              	.LFB65:
  94:main.c        ****         }
  95:main.c        ****         }
  96:main.c        ****     for(;;)
  97:main.c        ****     {
  98:main.c        ****         
  99:main.c        ****         ADC_Battery_StartConvert();
 100:main.c        ****         if(ADC_Battery_IsEndConversion(ADC_Battery_WAIT_FOR_RESULT)) {   // wait for get ADC conver
 101:main.c        ****             adcresult = ADC_Battery_GetResult16();
 102:main.c        ****             volts = ADC_Battery_CountsTo_Volts(adcresult);                  // convert value to Vol
ARM GAS  C:\Users\wille\AppData\Local\Temp\ccFUieKB.s 			page 5


 103:main.c        ****         
 104:main.c        ****             // If you want to print value
 105:main.c        ****             printf("%d %f\r\n",adcresult, volts);
 106:main.c        ****         }
 107:main.c        ****         CyDelay(500);
 108:main.c        ****         
 109:main.c        ****     }
 110:main.c        ****  }   
 111:main.c        **** 
 112:main.c        **** float checkBat()
 113:main.c        **** {
 127              		.loc 1 113 0
 128              		.cfi_startproc
 129              		@ args = 0, pretend = 0, frame = 0
 130              		@ frame_needed = 0, uses_anonymous_args = 0
 131 0000 38B5     		push	{r3, r4, r5, lr}
 132              		.cfi_def_cfa_offset 16
 133              		.cfi_offset 3, -16
 134              		.cfi_offset 4, -12
 135              		.cfi_offset 5, -8
 136              		.cfi_offset 14, -4
 137              	.LVL10:
 114:main.c        ****     int16 adcresult =0;
 115:main.c        ****     float volts = 0.0;
 116:main.c        ****     ADC_Battery_StartConvert();
 138              		.loc 1 116 0
 139 0002 FFF7FEFF 		bl	ADC_Battery_StartConvert
 140              	.LVL11:
 117:main.c        ****     if(ADC_Battery_IsEndConversion(ADC_Battery_WAIT_FOR_RESULT)) 
 141              		.loc 1 117 0
 142 0006 0020     		movs	r0, #0
 143 0008 FFF7FEFF 		bl	ADC_Battery_IsEndConversion
 144              	.LVL12:
 145 000c 90B1     		cbz	r0, .L12
 118:main.c        ****     {   // wait for get ADC converted value
 119:main.c        ****         adcresult = ADC_Battery_GetResult16();
 146              		.loc 1 119 0
 147 000e FFF7FEFF 		bl	ADC_Battery_GetResult16
 148              	.LVL13:
 149 0012 0546     		mov	r5, r0
 150              	.LVL14:
 120:main.c        ****         volts = ADC_Battery_CountsTo_Volts(adcresult)*1.5;                  // convert value to Vol
 151              		.loc 1 120 0
 152 0014 FFF7FEFF 		bl	ADC_Battery_CountsTo_Volts
 153              	.LVL15:
 154 0018 4FF07F51 		mov	r1, #1069547520
 155 001c FFF7FEFF 		bl	__aeabi_fmul
 156              	.LVL16:
 157 0020 0446     		mov	r4, r0
 158              	.LVL17:
 121:main.c        ****     
 122:main.c        ****         // If you want to print value
 123:main.c        ****         printf("%d %f\r\n",adcresult, volts);
 159              		.loc 1 123 0
 160 0022 FFF7FEFF 		bl	__aeabi_f2d
 161              	.LVL18:
 162 0026 0246     		mov	r2, r0
ARM GAS  C:\Users\wille\AppData\Local\Temp\ccFUieKB.s 			page 6


 163 0028 0B46     		mov	r3, r1
 164 002a 2946     		mov	r1, r5
 165 002c 0348     		ldr	r0, .L14
 166 002e FFF7FEFF 		bl	printf
 167              	.LVL19:
 168 0032 00E0     		b	.L11
 169              	.LVL20:
 170              	.L12:
 115:main.c        ****     ADC_Battery_StartConvert();
 171              		.loc 1 115 0
 172 0034 0024     		movs	r4, #0
 173              	.LVL21:
 174              	.L11:
 124:main.c        ****         
 125:main.c        ****     }
 126:main.c        ****     return(volts);
 127:main.c        **** }
 175              		.loc 1 127 0
 176 0036 2046     		mov	r0, r4
 177 0038 38BD     		pop	{r3, r4, r5, pc}
 178              	.LVL22:
 179              	.L15:
 180 003a 00BF     		.align	2
 181              	.L14:
 182 003c 08000000 		.word	.LC1
 183              		.cfi_endproc
 184              	.LFE65:
 185              		.size	checkBat, .-checkBat
 186              		.section	.text._write,"ax",%progbits
 187              		.align	2
 188              		.global	_write
 189              		.thumb
 190              		.thumb_func
 191              		.type	_write, %function
 192              	_write:
 193              	.LFB66:
 128:main.c        **** //*/
 129:main.c        **** 
 130:main.c        **** 
 131:main.c        **** /*//ultra sonic sensor//
 132:main.c        **** int main()
 133:main.c        **** {
 134:main.c        ****     CyGlobalIntEnable; 
 135:main.c        ****     UART_1_Start();
 136:main.c        ****     Ultra_Start();                          // Ultra Sonic Start function
 137:main.c        ****     while(1) {
 138:main.c        ****         //If you want to print out the value  
 139:main.c        ****         printf("distance = %5.0f\r\n", Ultra_GetDistance());
 140:main.c        ****         CyDelay(1000);
 141:main.c        ****     }
 142:main.c        **** }   
 143:main.c        **** //*/
 144:main.c        **** 
 145:main.c        **** 
 146:main.c        **** /*//nunchuk//
 147:main.c        **** int main()
 148:main.c        **** {
ARM GAS  C:\Users\wille\AppData\Local\Temp\ccFUieKB.s 			page 7


 149:main.c        ****     CyGlobalIntEnable; 
 150:main.c        ****     UART_1_Start();
 151:main.c        ****   
 152:main.c        ****     nunchuk_start();
 153:main.c        ****     nunchuk_init();
 154:main.c        ****     
 155:main.c        ****     for(;;)
 156:main.c        ****     {    
 157:main.c        ****         nunchuk_read();
 158:main.c        ****     }
 159:main.c        **** }   
 160:main.c        **** //*/
 161:main.c        **** 
 162:main.c        **** 
 163:main.c        **** /*//IR receiver//
 164:main.c        **** int main()
 165:main.c        **** {
 166:main.c        ****     CyGlobalIntEnable; 
 167:main.c        ****     UART_1_Start();
 168:main.c        ****     
 169:main.c        ****     unsigned int IR_val; 
 170:main.c        ****     
 171:main.c        ****     for(;;)
 172:main.c        ****     {
 173:main.c        ****        IR_val = get_IR();
 174:main.c        ****        printf("%x\r\n\n",IR_val);
 175:main.c        ****     }    
 176:main.c        ****  }   
 177:main.c        **** //*/
 178:main.c        **** 
 179:main.c        **** 
 180:main.c        **** /*//Ambient light sensor//
 181:main.c        **** int main()
 182:main.c        **** {
 183:main.c        ****     CyGlobalIntEnable; 
 184:main.c        ****     UART_1_Start();
 185:main.c        ****     
 186:main.c        ****     I2C_Start();
 187:main.c        ****     
 188:main.c        ****     I2C_write(0x29,0x80,0x00);          // set to power down
 189:main.c        ****     I2C_write(0x29,0x80,0x03);          // set to power on
 190:main.c        ****     
 191:main.c        ****     for(;;)
 192:main.c        ****     {    
 193:main.c        ****         uint8 Data0Low,Data0High,Data1Low,Data1High;
 194:main.c        ****         Data0Low = I2C_read(0x29,CH0_L);
 195:main.c        ****         Data0High = I2C_read(0x29,CH0_H);
 196:main.c        ****         Data1Low = I2C_read(0x29,CH1_L);
 197:main.c        ****         Data1High = I2C_read(0x29,CH1_H);
 198:main.c        ****         
 199:main.c        ****         uint8 CH0, CH1;
 200:main.c        ****         CH0 = convert_raw(Data0Low,Data0High);      // combine Data0
 201:main.c        ****         CH1 = convert_raw(Data1Low,Data1High);      // combine Data1
 202:main.c        **** 
 203:main.c        ****         double Ch0 = CH0;
 204:main.c        ****         double Ch1 = CH1;
 205:main.c        ****         
ARM GAS  C:\Users\wille\AppData\Local\Temp\ccFUieKB.s 			page 8


 206:main.c        ****         double data = 0;
 207:main.c        ****         data = getLux(Ch0,Ch1);
 208:main.c        ****         
 209:main.c        ****         // If you want to print out data
 210:main.c        ****         //printf("%lf\r\n",data);    
 211:main.c        ****     }    
 212:main.c        ****  }   
 213:main.c        **** //*/
 214:main.c        **** 
 215:main.c        **** 
 216:main.c        **** /*//accelerometer//
 217:main.c        **** int main()
 218:main.c        **** {
 219:main.c        ****     CyGlobalIntEnable; 
 220:main.c        ****     UART_1_Start();
 221:main.c        ****   
 222:main.c        ****     I2C_Start();
 223:main.c        ****   
 224:main.c        ****     uint8 X_L_A, X_H_A, Y_L_A, Y_H_A, Z_L_A, Z_H_A;
 225:main.c        ****     int16 X_AXIS_A, Y_AXIS_A, Z_AXIS_A;
 226:main.c        ****     
 227:main.c        ****     I2C_write(ACCEL_MAG_ADDR, ACCEL_CTRL1_REG, 0x37);           // set accelerometer & magnetometer
 228:main.c        ****     I2C_write(ACCEL_MAG_ADDR, ACCEL_CTRL7_REG, 0x22);
 229:main.c        ****     
 230:main.c        ****     
 231:main.c        ****     for(;;)
 232:main.c        ****     {
 233:main.c        ****         //print out accelerometer output
 234:main.c        ****         X_L_A = I2C_read(ACCEL_MAG_ADDR, OUT_X_L_A);
 235:main.c        ****         X_H_A = I2C_read(ACCEL_MAG_ADDR, OUT_X_H_A);
 236:main.c        ****         X_AXIS_A = convert_raw(X_L_A, X_H_A);
 237:main.c        ****         
 238:main.c        ****         Y_L_A = I2C_read(ACCEL_MAG_ADDR, OUT_Y_L_A);
 239:main.c        ****         Y_H_A = I2C_read(ACCEL_MAG_ADDR, OUT_Y_H_A);
 240:main.c        ****         Y_AXIS_A = convert_raw(Y_L_A, Y_H_A);
 241:main.c        ****         
 242:main.c        ****         Z_L_A = I2C_read(ACCEL_MAG_ADDR, OUT_Z_L_A);
 243:main.c        ****         Z_H_A = I2C_read(ACCEL_MAG_ADDR, OUT_Z_H_A);
 244:main.c        ****         Z_AXIS_A = convert_raw(Z_L_A, Z_H_A);
 245:main.c        ****         
 246:main.c        ****         printf("ACCEL: %d %d %d %d %d %d \r\n", X_L_A, X_H_A, Y_L_A, Y_H_A, Z_L_A, Z_H_A);
 247:main.c        ****         value_convert_accel(X_AXIS_A, Y_AXIS_A, Z_AXIS_A);
 248:main.c        ****         printf("\n");
 249:main.c        ****         
 250:main.c        ****         CyDelay(50);
 251:main.c        ****     }
 252:main.c        **** }   
 253:main.c        **** //*/
 254:main.c        **** 
 255:main.c        **** 
 256:main.c        **** /*//reflectance//
 257:main.c        **** int main()
 258:main.c        **** {
 259:main.c        ****     struct sensors_ ref;
 260:main.c        ****     struct sensors_ dig;
 261:main.c        ****     CyGlobalIntEnable; 
 262:main.c        ****     UART_1_Start();
ARM GAS  C:\Users\wille\AppData\Local\Temp\ccFUieKB.s 			page 9


 263:main.c        ****   
 264:main.c        ****     sensor_isr_StartEx(sensor_isr_handler);
 265:main.c        ****     
 266:main.c        ****     reflectance_start();
 267:main.c        **** 
 268:main.c        ****     IR_led_Write(1);
 269:main.c        ****     for(;;)
 270:main.c        ****     {
 271:main.c        ****         reflectance_read(&ref);
 272:main.c        ****         printf("%d %d %d %d \r\n", ref.l3, ref.l1, ref.r1, ref.r3);       //print out each period o
 273:main.c        ****         reflectance_digital(&dig);      //print out 0 or 1 according to results of reflectance peri
 274:main.c        ****         printf("%d %d %d %d \r\n", dig.l3, dig.l1, dig.r1, dig.r3);        //print out 0 or 1 accor
 275:main.c        ****         
 276:main.c        ****         CyDelay(500);
 277:main.c        ****     }
 278:main.c        **** }   
 279:main.c        **** //*/
 280:main.c        **** 
 281:main.c        ****  /* //motor//
 282:main.c        **** int main()
 283:main.c        **** {
 284:main.c        ****     CyGlobalIntEnable; 
 285:main.c        ****     UART_1_Start();
 286:main.c        **** 
 287:main.c        ****     motor_start();              // motor start
 288:main.c        **** 
 289:main.c        ****     motor_forward(100,2000);     // moving forward
 290:main.c        ****     motor_turn(200,50,2000);     // turn
 291:main.c        ****     motor_turn(50,200,2000);     // turn
 292:main.c        ****     motor_backward(100,2000);    // movinb backward
 293:main.c        ****        
 294:main.c        ****     motor_stop();               // motor stop
 295:main.c        ****     
 296:main.c        ****     for(;;)
 297:main.c        ****     {
 298:main.c        **** 
 299:main.c        ****     }
 300:main.c        **** }
 301:main.c        **** //*/
 302:main.c        ****     
 303:main.c        **** 
 304:main.c        **** /*//gyroscope//
 305:main.c        **** int main()
 306:main.c        **** {
 307:main.c        ****     CyGlobalIntEnable; 
 308:main.c        ****     UART_1_Start();
 309:main.c        ****   
 310:main.c        ****     I2C_Start();
 311:main.c        ****   
 312:main.c        ****     uint8 X_L_G, X_H_G, Y_L_G, Y_H_G, Z_L_G, Z_H_G;
 313:main.c        ****     int16 X_AXIS_G, Y_AXIS_G, Z_AXIS_G;
 314:main.c        ****     
 315:main.c        ****     I2C_write(GYRO_ADDR, GYRO_CTRL1_REG, 0x0F);             // set gyroscope into active mode
 316:main.c        ****     I2C_write(GYRO_ADDR, GYRO_CTRL4_REG, 0x30);             // set full scale selection to 2000dps 
 317:main.c        ****     
 318:main.c        ****     for(;;)
 319:main.c        ****     {
ARM GAS  C:\Users\wille\AppData\Local\Temp\ccFUieKB.s 			page 10


 320:main.c        ****         //print out gyroscope output
 321:main.c        ****         X_L_G = I2C_read(GYRO_ADDR, OUT_X_AXIS_L);
 322:main.c        ****         X_H_G = I2C_read(GYRO_ADDR, OUT_X_AXIS_H);
 323:main.c        ****         X_AXIS_G = convert_raw(X_H_G, X_L_G);
 324:main.c        ****         
 325:main.c        ****         
 326:main.c        ****         Y_L_G = I2C_read(GYRO_ADDR, OUT_Y_AXIS_L);
 327:main.c        ****         Y_H_G = I2C_read(GYRO_ADDR, OUT_Y_AXIS_H);
 328:main.c        ****         Y_AXIS_G = convert_raw(Y_H_G, Y_L_G);
 329:main.c        ****         
 330:main.c        ****         
 331:main.c        ****         Z_L_G = I2C_read(GYRO_ADDR, OUT_Z_AXIS_L);
 332:main.c        ****         Z_H_G = I2C_read(GYRO_ADDR, OUT_Z_AXIS_H);
 333:main.c        ****         Z_AXIS_G = convert_raw(Z_H_G, Z_L_G);
 334:main.c        ****      
 335:main.c        ****         // If you want to print value
 336:main.c        ****         printf("%d %d %d \r\n", X_AXIS_G, Y_AXIS_G, Z_AXIS_G);
 337:main.c        ****         CyDelay(50);
 338:main.c        ****     }
 339:main.c        **** }   
 340:main.c        **** //*/
 341:main.c        **** 
 342:main.c        **** 
 343:main.c        **** /*//magnetometer//
 344:main.c        **** int main()
 345:main.c        **** {
 346:main.c        ****     CyGlobalIntEnable; 
 347:main.c        ****     UART_1_Start();
 348:main.c        ****   
 349:main.c        ****     I2C_Start();
 350:main.c        ****    
 351:main.c        ****     uint8 X_L_M, X_H_M, Y_L_M, Y_H_M, Z_L_M, Z_H_M;
 352:main.c        ****     int16 X_AXIS, Y_AXIS, Z_AXIS;
 353:main.c        ****     
 354:main.c        ****     I2C_write(GYRO_ADDR, GYRO_CTRL1_REG, 0x0F);             // set gyroscope into active mode
 355:main.c        ****     I2C_write(GYRO_ADDR, GYRO_CTRL4_REG, 0x30);             // set full scale selection to 2000dps
 356:main.c        ****     I2C_write(ACCEL_MAG_ADDR, ACCEL_CTRL1_REG, 0x37);           // set accelerometer & magnetometer
 357:main.c        ****     I2C_write(ACCEL_MAG_ADDR, ACCEL_CTRL7_REG, 0x22);
 358:main.c        ****     
 359:main.c        ****     
 360:main.c        ****     for(;;)
 361:main.c        ****     {
 362:main.c        ****         X_L_M = I2C_read(ACCEL_MAG_ADDR, OUT_X_L_M);
 363:main.c        ****         X_H_M = I2C_read(ACCEL_MAG_ADDR, OUT_X_H_M);
 364:main.c        ****         X_AXIS = convert_raw(X_L_M, X_H_M);
 365:main.c        ****         
 366:main.c        ****         Y_L_M = I2C_read(ACCEL_MAG_ADDR, OUT_Y_L_M);
 367:main.c        ****         Y_H_M = I2C_read(ACCEL_MAG_ADDR, OUT_Y_H_M);
 368:main.c        ****         Y_AXIS = convert_raw(Y_L_M, Y_H_M);
 369:main.c        ****         
 370:main.c        ****         Z_L_M = I2C_read(ACCEL_MAG_ADDR, OUT_Z_L_M);
 371:main.c        ****         Z_H_M = I2C_read(ACCEL_MAG_ADDR, OUT_Z_H_M);
 372:main.c        ****         Z_AXIS = convert_raw(Z_L_M, Z_H_M);
 373:main.c        ****         
 374:main.c        ****         heading(X_AXIS, Y_AXIS);
 375:main.c        ****         printf("MAGNET: %d %d %d %d %d %d \r\n", X_L_M, X_H_M, Y_L_M, Y_H_M, Z_L_M, Z_H_M);
 376:main.c        ****         printf("%d %d %d \r\n", X_AXIS,Y_AXIS, Z_AXIS);
ARM GAS  C:\Users\wille\AppData\Local\Temp\ccFUieKB.s 			page 11


 377:main.c        ****         CyDelay(50);      
 378:main.c        ****     }
 379:main.c        **** }   
 380:main.c        **** //*/
 381:main.c        **** 
 382:main.c        **** 
 383:main.c        **** #if 0
 384:main.c        **** int rread(void)
 385:main.c        **** {
 386:main.c        ****     SC0_SetDriveMode(PIN_DM_STRONG);
 387:main.c        ****     SC0_Write(1);
 388:main.c        ****     CyDelayUs(10);
 389:main.c        ****     SC0_SetDriveMode(PIN_DM_DIG_HIZ);
 390:main.c        ****     Timer_1_Start();
 391:main.c        ****     uint16_t start = Timer_1_ReadCounter();
 392:main.c        ****     uint16_t end = 0;
 393:main.c        ****     while(!(Timer_1_ReadStatusRegister() & Timer_1_STATUS_TC)) {
 394:main.c        ****         if(SC0_Read() == 0 && end == 0) {
 395:main.c        ****             end = Timer_1_ReadCounter();
 396:main.c        ****         }
 397:main.c        ****     }
 398:main.c        ****     Timer_1_Stop();
 399:main.c        ****     
 400:main.c        ****     return (start - end);
 401:main.c        **** }
 402:main.c        **** #endif
 403:main.c        **** 
 404:main.c        **** /* Don't remove the functions below */
 405:main.c        **** int _write(int file, char *ptr, int len)
 406:main.c        **** {
 194              		.loc 1 406 0
 195              		.cfi_startproc
 196              		@ args = 0, pretend = 0, frame = 0
 197              		@ frame_needed = 0, uses_anonymous_args = 0
 198              	.LVL23:
 199 0000 F8B5     		push	{r3, r4, r5, r6, r7, lr}
 200              		.cfi_def_cfa_offset 24
 201              		.cfi_offset 3, -24
 202              		.cfi_offset 4, -20
 203              		.cfi_offset 5, -16
 204              		.cfi_offset 6, -12
 205              		.cfi_offset 7, -8
 206              		.cfi_offset 14, -4
 207 0002 0C46     		mov	r4, r1
 208 0004 1746     		mov	r7, r2
 209              	.LVL24:
 407:main.c        ****     (void)file; /* Parameter is not used, suppress unused argument warning */
 408:main.c        **** 	int n;
 409:main.c        **** 	for(n = 0; n < len; n++) {
 210              		.loc 1 409 0
 211 0006 0025     		movs	r5, #0
 212 0008 0BE0     		b	.L17
 213              	.LVL25:
 214              	.L19:
 410:main.c        ****         if(*ptr == '\n') UART_1_PutChar('\r');
 215              		.loc 1 410 0
 216 000a 2378     		ldrb	r3, [r4]	@ zero_extendqisi2
ARM GAS  C:\Users\wille\AppData\Local\Temp\ccFUieKB.s 			page 12


 217 000c 0A2B     		cmp	r3, #10
 218 000e 02D1     		bne	.L18
 219              		.loc 1 410 0 is_stmt 0 discriminator 1
 220 0010 0D20     		movs	r0, #13
 221 0012 FFF7FEFF 		bl	UART_1_PutChar
 222              	.LVL26:
 223              	.L18:
 411:main.c        **** 		UART_1_PutChar(*ptr++);
 224              		.loc 1 411 0 is_stmt 1 discriminator 2
 225 0016 661C     		adds	r6, r4, #1
 226              	.LVL27:
 227 0018 2078     		ldrb	r0, [r4]	@ zero_extendqisi2
 228 001a FFF7FEFF 		bl	UART_1_PutChar
 229              	.LVL28:
 409:main.c        ****         if(*ptr == '\n') UART_1_PutChar('\r');
 230              		.loc 1 409 0 discriminator 2
 231 001e 0135     		adds	r5, r5, #1
 232              	.LVL29:
 233              		.loc 1 411 0 discriminator 2
 234 0020 3446     		mov	r4, r6
 235              	.LVL30:
 236              	.L17:
 409:main.c        ****         if(*ptr == '\n') UART_1_PutChar('\r');
 237              		.loc 1 409 0 discriminator 1
 238 0022 BD42     		cmp	r5, r7
 239 0024 F1DB     		blt	.L19
 412:main.c        **** 	}
 413:main.c        **** 	return len;
 414:main.c        **** }
 240              		.loc 1 414 0
 241 0026 3846     		mov	r0, r7
 242 0028 F8BD     		pop	{r3, r4, r5, r6, r7, pc}
 243              		.cfi_endproc
 244              	.LFE66:
 245              		.size	_write, .-_write
 246 002a 00BF     		.section	.text._read,"ax",%progbits
 247              		.align	2
 248              		.global	_read
 249              		.thumb
 250              		.thumb_func
 251              		.type	_read, %function
 252              	_read:
 253              	.LFB67:
 415:main.c        **** 
 416:main.c        **** int _read (int file, char *ptr, int count)
 417:main.c        **** {
 254              		.loc 1 417 0
 255              		.cfi_startproc
 256              		@ args = 0, pretend = 0, frame = 0
 257              		@ frame_needed = 0, uses_anonymous_args = 0
 258              	.LVL31:
 259 0000 F8B5     		push	{r3, r4, r5, r6, r7, lr}
 260              		.cfi_def_cfa_offset 24
 261              		.cfi_offset 3, -24
 262              		.cfi_offset 4, -20
 263              		.cfi_offset 5, -16
 264              		.cfi_offset 6, -12
ARM GAS  C:\Users\wille\AppData\Local\Temp\ccFUieKB.s 			page 13


 265              		.cfi_offset 7, -8
 266              		.cfi_offset 14, -4
 267 0002 0F46     		mov	r7, r1
 268 0004 1446     		mov	r4, r2
 269              	.LVL32:
 418:main.c        ****     int chs = 0;
 270              		.loc 1 418 0
 271 0006 0026     		movs	r6, #0
 419:main.c        ****     char ch;
 420:main.c        ****  
 421:main.c        ****     (void)file; /* Parameter is not used, suppress unused argument warning */
 422:main.c        ****     while(count > 0) {
 272              		.loc 1 422 0
 273 0008 12E0     		b	.L23
 274              	.LVL33:
 275              	.L26:
 423:main.c        ****         ch = UART_1_GetChar();
 276              		.loc 1 423 0
 277 000a FFF7FEFF 		bl	UART_1_GetChar
 278              	.LVL34:
 424:main.c        ****         if(ch != 0) {
 279              		.loc 1 424 0
 280 000e 0546     		mov	r5, r0
 281 0010 70B1     		cbz	r0, .L23
 425:main.c        ****             UART_1_PutChar(ch);
 282              		.loc 1 425 0
 283 0012 FFF7FEFF 		bl	UART_1_PutChar
 284              	.LVL35:
 426:main.c        ****             chs++;
 285              		.loc 1 426 0
 286 0016 0136     		adds	r6, r6, #1
 287              	.LVL36:
 427:main.c        ****             if(ch == '\r') {
 288              		.loc 1 427 0
 289 0018 0D2D     		cmp	r5, #13
 290 001a 03D1     		bne	.L24
 291              	.LVL37:
 428:main.c        ****                 ch = '\n';
 429:main.c        ****                 UART_1_PutChar(ch);
 292              		.loc 1 429 0
 293 001c 0A20     		movs	r0, #10
 294 001e FFF7FEFF 		bl	UART_1_PutChar
 295              	.LVL38:
 428:main.c        ****                 ch = '\n';
 296              		.loc 1 428 0
 297 0022 0A25     		movs	r5, #10
 298              	.LVL39:
 299              	.L24:
 430:main.c        ****             }
 431:main.c        ****             *ptr++ = ch;
 300              		.loc 1 431 0
 301 0024 7B1C     		adds	r3, r7, #1
 302              	.LVL40:
 303 0026 3D70     		strb	r5, [r7]
 432:main.c        ****             count--;
 304              		.loc 1 432 0
 305 0028 013C     		subs	r4, r4, #1
ARM GAS  C:\Users\wille\AppData\Local\Temp\ccFUieKB.s 			page 14


 306              	.LVL41:
 433:main.c        ****             if(ch == '\n') break;
 307              		.loc 1 433 0
 308 002a 0A2D     		cmp	r5, #10
 309 002c 02D0     		beq	.L25
 431:main.c        ****             count--;
 310              		.loc 1 431 0
 311 002e 1F46     		mov	r7, r3
 312              	.LVL42:
 313              	.L23:
 422:main.c        ****         ch = UART_1_GetChar();
 314              		.loc 1 422 0
 315 0030 002C     		cmp	r4, #0
 316 0032 EADC     		bgt	.L26
 317              	.LVL43:
 318              	.L25:
 434:main.c        ****         }
 435:main.c        ****     }
 436:main.c        ****     return chs;
 437:main.c        **** }
 319              		.loc 1 437 0
 320 0034 3046     		mov	r0, r6
 321 0036 F8BD     		pop	{r3, r4, r5, r6, r7, pc}
 322              		.cfi_endproc
 323              	.LFE67:
 324              		.size	_read, .-_read
 325              		.comm	threshold,8,4
 326              		.section	.rodata.str1.4,"aMS",%progbits,1
 327              		.align	2
 328              	.LC0:
 329 0000 0A426F6F 		.ascii	"\012Boot\000"
 329      7400
 330 0006 0000     		.space	2
 331              	.LC1:
 332 0008 25642025 		.ascii	"%d %f\015\012\000"
 332      660D0A00 
 333              		.text
 334              	.Letext0:
 335              		.file 2 "d:\\koulu\\laitteet\\psoc\\psoc creator\\4.1\\psoc creator\\import\\gnu\\arm\\5.4.1\\arm-
 336              		.file 3 "d:\\koulu\\laitteet\\psoc\\psoc creator\\4.1\\psoc creator\\import\\gnu\\arm\\5.4.1\\arm-
 337              		.file 4 "Generated_Source\\PSoC5/cytypes.h"
 338              		.file 5 ".\\ZumoLibrary/Reflectance.h"
 339              		.file 6 "Generated_Source\\PSoC5/core_cm3.h"
 340              		.file 7 "Generated_Source\\PSoC5/UART_1.h"
 341              		.file 8 "Generated_Source\\PSoC5/ADC_Battery.h"
 342              		.file 9 "Generated_Source\\PSoC5/BatteryLed.h"
 343              		.file 10 ".\\ZumoLibrary/Motor.h"
 344              		.file 11 "Generated_Source\\PSoC5/SW1.h"
 345              		.file 12 "Generated_Source\\PSoC5/CyLib.h"
 346              		.file 13 "d:\\koulu\\laitteet\\psoc\\psoc creator\\4.1\\psoc creator\\import\\gnu\\arm\\5.4.1\\arm
 347              		.file 14 "<built-in>"